target datalayout = "e-m:e-p270:32:32-p271:32:32-p272:64:64-i64:64-i128:128-f80:128-n8:16:32:64-S128"
target triple = "x86_64-pc-linux-gnu"

%struct.boxf = type { %struct.pointf_s, %struct.pointf_s }
%struct.pointf_s = type { double, double }
%struct.Agobj_s = type { %struct.Agtag_s, ptr }
%struct.Agtag_s = type { i32, i64 }
%struct.Agraphinfo_t = type { %struct.Agrec_s, ptr, ptr, %struct.boxf, [4 x %struct.pointf_s], i8, i8, i8, i8, i32, double, double, i16, ptr, ptr, ptr, ptr, i32, ptr, ptr, ptr, ptr, i16, i16, i32, ptr, ptr, ptr, ptr, ptr, i32, ptr, ptr, %struct.nlist_t, ptr, ptr, i32, i32, i8, i8, i32, i32, i32, ptr, ptr, ptr, ptr, i8, i8, i8, i8, i8 }
%struct.Agrec_s = type { ptr, ptr }
%struct.nlist_t = type { ptr, i64 }

@.str.22 = private unnamed_addr constant [6 x i8] c"color\00", align 1
@.str.23 = private unnamed_addr constant [9 x i8] c"pencolor\00", align 1
@.str.24 = private unnamed_addr constant [10 x i8] c"fillcolor\00", align 1
@.str.25 = private unnamed_addr constant [8 x i8] c"bgcolor\00", align 1
@.str.52 = private unnamed_addr constant [10 x i8] c"fontcolor\00", align 1

; Function Attrs: nounwind uwtable
define internal void @emit_cluster_colors(ptr noundef %0, ptr noundef %1) #0 {
  %3 = alloca ptr, align 8
  %4 = alloca ptr, align 8
  %5 = alloca ptr, align 8
  %6 = alloca i32, align 4
  %7 = alloca ptr, align 8
  store ptr %0, ptr %3, align 8, !tbaa !12
  store ptr %1, ptr %4, align 8, !tbaa !3
  call void @llvm.lifetime.start.p0(i64 8, ptr %5) #15
  call void @llvm.lifetime.start.p0(i64 4, ptr %6) #15
  call void @llvm.lifetime.start.p0(i64 8, ptr %7) #15
  store i32 1, ptr %6, align 4, !tbaa !44
  br label %8

8:                                                ; preds = %93, %2
  %9 = load i32, ptr %6, align 4, !tbaa !44
  %10 = load ptr, ptr %4, align 8, !tbaa !3
  %11 = getelementptr inbounds nuw %struct.Agobj_s, ptr %10, i32 0, i32 1
  %12 = load ptr, ptr %11, align 8, !tbaa !82
  %13 = getelementptr inbounds nuw %struct.Agraphinfo_t, ptr %12, i32 0, i32 24
  %14 = load i32, ptr %13, align 4, !tbaa !228
  %15 = icmp sle i32 %9, %14
  br i1 %15, label %16, label %96

16:                                               ; preds = %8
  %17 = load ptr, ptr %4, align 8, !tbaa !3
  %18 = getelementptr inbounds nuw %struct.Agobj_s, ptr %17, i32 0, i32 1
  %19 = load ptr, ptr %18, align 8, !tbaa !82
  %20 = getelementptr inbounds nuw %struct.Agraphinfo_t, ptr %19, i32 0, i32 25
  %21 = load ptr, ptr %20, align 8, !tbaa !229
  %22 = load i32, ptr %6, align 4, !tbaa !44
  %23 = sext i32 %22 to i64
  %24 = getelementptr inbounds ptr, ptr %21, i64 %23
  %25 = load ptr, ptr %24, align 8, !tbaa !3
  store ptr %25, ptr %5, align 8, !tbaa !3
  %26 = load ptr, ptr %3, align 8, !tbaa !12
  %27 = load ptr, ptr %5, align 8, !tbaa !3
  call void @emit_cluster_colors(ptr noundef %26, ptr noundef %27)
  %28 = load ptr, ptr %5, align 8, !tbaa !3
  %29 = call ptr @agget(ptr noundef %28, ptr noundef @.str.22)
  store ptr %29, ptr %7, align 8, !tbaa !9
  %30 = icmp ne ptr %29, null
  br i1 %30, label %31, label %40

31:                                               ; preds = %16
  %32 = load ptr, ptr %7, align 8, !tbaa !9
  %33 = getelementptr inbounds i8, ptr %32, i64 0
  %34 = load i8, ptr %33, align 1, !tbaa !11
  %35 = sext i8 %34 to i32
  %36 = icmp ne i32 %35, 0
  br i1 %36, label %37, label %40

37:                                               ; preds = %31
  %38 = load ptr, ptr %3, align 8, !tbaa !12
  %39 = load ptr, ptr %7, align 8, !tbaa !9
  call void @gvrender_set_pencolor(ptr noundef %38, ptr noundef %39)
  br label %40

40:                                               ; preds = %37, %31, %16
  %41 = load ptr, ptr %5, align 8, !tbaa !3
  %42 = call ptr @agget(ptr noundef %41, ptr noundef @.str.23)
  store ptr %42, ptr %7, align 8, !tbaa !9
  %43 = icmp ne ptr %42, null
  br i1 %43, label %44, label %53

44:                                               ; preds = %40
  %45 = load ptr, ptr %7, align 8, !tbaa !9
  %46 = getelementptr inbounds i8, ptr %45, i64 0
  %47 = load i8, ptr %46, align 1, !tbaa !11
  %48 = sext i8 %47 to i32
  %49 = icmp ne i32 %48, 0
  br i1 %49, label %50, label %53

50:                                               ; preds = %44
  %51 = load ptr, ptr %3, align 8, !tbaa !12
  %52 = load ptr, ptr %7, align 8, !tbaa !9
  call void @gvrender_set_pencolor(ptr noundef %51, ptr noundef %52)
  br label %53

53:                                               ; preds = %50, %44, %40
  %54 = load ptr, ptr %5, align 8, !tbaa !3
  %55 = call ptr @agget(ptr noundef %54, ptr noundef @.str.25)
  store ptr %55, ptr %7, align 8, !tbaa !9
  %56 = icmp ne ptr %55, null
  br i1 %56, label %57, label %66

57:                                               ; preds = %53
  %58 = load ptr, ptr %7, align 8, !tbaa !9
  %59 = getelementptr inbounds i8, ptr %58, i64 0
  %60 = load i8, ptr %59, align 1, !tbaa !11
  %61 = sext i8 %60 to i32
  %62 = icmp ne i32 %61, 0
  br i1 %62, label %63, label %66

63:                                               ; preds = %57
  %64 = load ptr, ptr %3, align 8, !tbaa !12
  %65 = load ptr, ptr %7, align 8, !tbaa !9
  call void @gvrender_set_pencolor(ptr noundef %64, ptr noundef %65)
  br label %66

66:                                               ; preds = %63, %57, %53
  %67 = load ptr, ptr %5, align 8, !tbaa !3
  %68 = call ptr @agget(ptr noundef %67, ptr noundef @.str.24)
  store ptr %68, ptr %7, align 8, !tbaa !9
  %69 = icmp ne ptr %68, null
  br i1 %69, label %70, label %79

70:                                               ; preds = %66
  %71 = load ptr, ptr %7, align 8, !tbaa !9
  %72 = getelementptr inbounds i8, ptr %71, i64 0
  %73 = load i8, ptr %72, align 1, !tbaa !11
  %74 = sext i8 %73 to i32
  %75 = icmp ne i32 %74, 0
  br i1 %75, label %76, label %79

76:                                               ; preds = %70
  %77 = load ptr, ptr %3, align 8, !tbaa !12
  %78 = load ptr, ptr %7, align 8, !tbaa !9
  call void @gvrender_set_fillcolor(ptr noundef %77, ptr noundef %78)
  br label %79

79:                                               ; preds = %76, %70, %66
  %80 = load ptr, ptr %5, align 8, !tbaa !3
  %81 = call ptr @agget(ptr noundef %80, ptr noundef @.str.52)
  store ptr %81, ptr %7, align 8, !tbaa !9
  %82 = icmp ne ptr %81, null
  br i1 %82, label %83, label %92

83:                                               ; preds = %79
  %84 = load ptr, ptr %7, align 8, !tbaa !9
  %85 = getelementptr inbounds i8, ptr %84, i64 0
  %86 = load i8, ptr %85, align 1, !tbaa !11
  %87 = sext i8 %86 to i32
  %88 = icmp ne i32 %87, 0
  br i1 %88, label %89, label %92

89:                                               ; preds = %83
  %90 = load ptr, ptr %3, align 8, !tbaa !12
  %91 = load ptr, ptr %7, align 8, !tbaa !9
  call void @gvrender_set_pencolor(ptr noundef %90, ptr noundef %91)
  br label %92

92:                                               ; preds = %89, %83, %79
  br label %93

93:                                               ; preds = %92
  %94 = load i32, ptr %6, align 4, !tbaa !44
  %95 = add nsw i32 %94, 1
  store i32 %95, ptr %6, align 4, !tbaa !44
  br label %8, !llvm.loop !361

96:                                               ; preds = %8
  call void @llvm.lifetime.end.p0(i64 8, ptr %7) #15
  call void @llvm.lifetime.end.p0(i64 4, ptr %6) #15
  call void @llvm.lifetime.end.p0(i64 8, ptr %5) #15
  ret void
}