; Function Attrs: nounwind uwtable
define internal fastcc void @emit_cluster_colors(ptr noundef %0, ptr noundef readonly captures(none) %1) unnamed_addr #0 {
  %3 = getelementptr inbounds nuw i8, ptr %1, i64 16
  %4 = load ptr, ptr %3, align 8, !tbaa !76
  %5 = getelementptr inbounds nuw i8, ptr %4, i64 236
  %6 = load i32, ptr %5, align 4, !tbaa !279
  %.not41 = icmp slt i32 %6, 1
  br i1 %.not41, label %._crit_edge, label %.lr.ph

.lr.ph:                                           ; preds = %2, %36
  %indvars.iv = phi i64 [ %indvars.iv.next, %36 ], [ 1, %2 ]
  %7 = phi ptr [ %37, %36 ], [ %4, %2 ]
  %8 = getelementptr inbounds nuw i8, ptr %7, i64 240
  %9 = load ptr, ptr %8, align 8, !tbaa !281
  %10 = getelementptr inbounds nuw ptr, ptr %9, i64 %indvars.iv
  %11 = load ptr, ptr %10, align 8, !tbaa !282
  tail call fastcc void @emit_cluster_colors(ptr noundef %0, ptr noundef %11)
  %12 = tail call ptr @agget(ptr noundef %11, ptr noundef nonnull @.str.22) #27
  %.not31 = icmp eq ptr %12, null
  br i1 %.not31, label %16, label %13

13:                                               ; preds = %.lr.ph
  %14 = load i8, ptr %12, align 1, !tbaa !3
  %.not32 = icmp eq i8 %14, 0
  br i1 %.not32, label %16, label %15

15:                                               ; preds = %13
  tail call void @gvrender_set_pencolor(ptr noundef %0, ptr noundef nonnull %12) #27
  br label %16

16:                                               ; preds = %15, %13, %.lr.ph
  %17 = tail call ptr @agget(ptr noundef %11, ptr noundef nonnull @.str.23) #27
  %.not33 = icmp eq ptr %17, null
  br i1 %.not33, label %21, label %18

18:                                               ; preds = %16
  %19 = load i8, ptr %17, align 1, !tbaa !3
  %.not34 = icmp eq i8 %19, 0
  br i1 %.not34, label %21, label %20

20:                                               ; preds = %18
  tail call void @gvrender_set_pencolor(ptr noundef %0, ptr noundef nonnull %17) #27
  br label %21

21:                                               ; preds = %20, %18, %16
  %22 = tail call ptr @agget(ptr noundef %11, ptr noundef nonnull @.str.25) #27
  %.not35 = icmp eq ptr %22, null
  br i1 %.not35, label %26, label %23

23:                                               ; preds = %21
  %24 = load i8, ptr %22, align 1, !tbaa !3
  %.not36 = icmp eq i8 %24, 0
  br i1 %.not36, label %26, label %25

25:                                               ; preds = %23
  tail call void @gvrender_set_pencolor(ptr noundef %0, ptr noundef nonnull %22) #27
  br label %26

26:                                               ; preds = %25, %23, %21
  %27 = tail call ptr @agget(ptr noundef %11, ptr noundef nonnull @.str.24) #27
  %.not37 = icmp eq ptr %27, null
  br i1 %.not37, label %31, label %28

28:                                               ; preds = %26
  %29 = load i8, ptr %27, align 1, !tbaa !3
  %.not38 = icmp eq i8 %29, 0
  br i1 %.not38, label %31, label %30

30:                                               ; preds = %28
  tail call void @gvrender_set_fillcolor(ptr noundef %0, ptr noundef nonnull %27) #27
  br label %31

31:                                               ; preds = %30, %28, %26
  %32 = tail call ptr @agget(ptr noundef %11, ptr noundef nonnull @.str.52) #27
  %.not39 = icmp eq ptr %32, null
  br i1 %.not39, label %36, label %33

33:                                               ; preds = %31
  %34 = load i8, ptr %32, align 1, !tbaa !3
  %.not40 = icmp eq i8 %34, 0
  br i1 %.not40, label %36, label %35

35:                                               ; preds = %33
  tail call void @gvrender_set_pencolor(ptr noundef %0, ptr noundef nonnull %32) #27
  br label %36

36:                                               ; preds = %31, %33, %35
  %indvars.iv.next = add nuw nsw i64 %indvars.iv, 1
  %37 = load ptr, ptr %3, align 8, !tbaa !76
  %38 = getelementptr inbounds nuw i8, ptr %37, i64 236
  %39 = load i32, ptr %38, align 4, !tbaa !279
  %40 = sext i32 %39 to i64
  %.not.not = icmp slt i64 %indvars.iv, %40
  br i1 %.not.not, label %.lr.ph, label %._crit_edge, !llvm.loop !497

._crit_edge:                                      ; preds = %36, %2
  ret void
}